; Function Attrs: mustprogress uwtable
define void @_ZN2mu10ParserBase4EvalEPdi(ptr noundef nonnull align 8 dereferenceable(596) %0, ptr noundef %1, i32 noundef %2) local_unnamed_addr #7 align 2 {
  %4 = alloca ptr, align 8
  %5 = alloca i32, align 4
  store ptr %1, ptr %4, align 8
  store i32 %2, ptr %5, align 4
  tail call void @_ZNK2mu10ParserBase9CreateRPNEv(ptr noundef nonnull align 8 dereferenceable(596) %0)
  %6 = tail call i32 @omp_get_max_threads()
  %.sroa.speculated8 = tail call i32 @llvm.smin.i32(i32 %6, i32 16)
  tail call void @omp_set_num_threads(i32 noundef %.sroa.speculated8)
  %7 = sdiv i32 %2, %.sroa.speculated8
  %.sroa.speculated = tail call i32 @llvm.smax.i32(i32 %7, i32 1)
  %.sroa.0.0.insert.ext = zext nneg i32 %.sroa.speculated to i64
  call void (ptr, i32, ptr, ...) @__kmpc_fork_call(ptr nonnull @2, i32 4, ptr nonnull @_ZN2mu10ParserBase4EvalEPdi.omp_outlined, ptr nonnull %5, ptr nonnull %4, ptr nonnull %0, i64 %.sroa.0.0.insert.ext)
  ret void
}